target datalayout = "e-m:e-p270:32:32-p271:32:32-p272:64:64-i64:64-i128:128-f80:128-n8:16:32:64-S128"
target triple = "x86_64-pc-linux-gnu"

%struct.ps_prochandle = type { ptr, i32, i32, ptr, ptr, i32, ptr, ptr }
%struct.core_data = type { i32, i32, i32, i32, i64, i64, i64, ptr, ptr, ptr }
%struct.map_info = type { i32, i64, i64, i64, i32, ptr }

@.str.22 = private unnamed_addr constant [36 x i8] c"can't allocate memory for map_info\0A\00", align 1

; Function Attrs: nounwind uwtable
define internal ptr @allocate_init_map(i32 noundef %0, i64 noundef %1, i64 noundef %2, i64 noundef %3, i32 noundef %4) #0 {
  %6 = alloca ptr, align 8
  %7 = alloca i32, align 4
  %8 = alloca i64, align 8
  %9 = alloca i64, align 8
  %10 = alloca i64, align 8
  %11 = alloca i32, align 4
  %12 = alloca ptr, align 8
  store i32 %0, ptr %7, align 4
  store i64 %1, ptr %8, align 8
  store i64 %2, ptr %9, align 8
  store i64 %3, ptr %10, align 8
  store i32 %4, ptr %11, align 4
  %13 = call noalias ptr @calloc(i64 noundef 1, i64 noundef 48) #7
  store ptr %13, ptr %12, align 8
  %14 = icmp eq ptr %13, null
  br i1 %14, label %15, label %16

15:                                               ; preds = %5
  call void (ptr, ...) @print_error(ptr noundef @.str.22)
  store ptr null, ptr %6, align 8
  br label %33

16:                                               ; preds = %5
  %17 = load i32, ptr %7, align 4
  %18 = load ptr, ptr %12, align 8
  %19 = getelementptr inbounds %struct.map_info, ptr %18, i32 0, i32 0
  store i32 %17, ptr %19, align 8
  %20 = load i64, ptr %8, align 8
  %21 = load ptr, ptr %12, align 8
  %22 = getelementptr inbounds %struct.map_info, ptr %21, i32 0, i32 1
  store i64 %20, ptr %22, align 8
  %23 = load i64, ptr %9, align 8
  %24 = load ptr, ptr %12, align 8
  %25 = getelementptr inbounds %struct.map_info, ptr %24, i32 0, i32 2
  store i64 %23, ptr %25, align 8
  %26 = load i64, ptr %10, align 8
  %27 = load ptr, ptr %12, align 8
  %28 = getelementptr inbounds %struct.map_info, ptr %27, i32 0, i32 3
  store i64 %26, ptr %28, align 8
  %29 = load i32, ptr %11, align 4
  %30 = load ptr, ptr %12, align 8
  %31 = getelementptr inbounds %struct.map_info, ptr %30, i32 0, i32 4
  store i32 %29, ptr %31, align 8
  %32 = load ptr, ptr %12, align 8
  store ptr %32, ptr %6, align 8
  br label %33

33:                                               ; preds = %16, %15
  %34 = load ptr, ptr %6, align 8
  ret ptr %34
}

; Function Attrs: nounwind uwtable
define internal ptr @add_class_share_map_info(ptr noundef %0, i64 noundef %1, i64 noundef %2, i64 noundef %3) #0 {
  %5 = alloca ptr, align 8
  %6 = alloca ptr, align 8
  %7 = alloca i64, align 8
  %8 = alloca i64, align 8
  %9 = alloca i64, align 8
  %10 = alloca ptr, align 8
  store ptr %0, ptr %6, align 8
  store i64 %1, ptr %7, align 8
  store i64 %2, ptr %8, align 8
  store i64 %3, ptr %9, align 8
  %11 = load ptr, ptr %6, align 8
  %12 = getelementptr inbounds %struct.ps_prochandle, ptr %11, i32 0, i32 7
  %13 = load ptr, ptr %12, align 8
  %14 = getelementptr inbounds %struct.core_data, ptr %13, i32 0, i32 3
  %15 = load i32, ptr %14, align 4
  %16 = load i64, ptr %7, align 8
  %17 = load i64, ptr %8, align 8
  %18 = load i64, ptr %9, align 8
  %19 = call ptr @allocate_init_map(i32 noundef %15, i64 noundef %16, i64 noundef %17, i64 noundef %18, i32 noundef 4)
  store ptr %19, ptr %10, align 8
  %20 = icmp eq ptr %19, null
  br i1 %20, label %21, label %22

21:                                               ; preds = %4
  store ptr null, ptr %5, align 8
  br label %36

22:                                               ; preds = %4
  %23 = load ptr, ptr %6, align 8
  %24 = getelementptr inbounds %struct.ps_prochandle, ptr %23, i32 0, i32 7
  %25 = load ptr, ptr %24, align 8
  %26 = getelementptr inbounds %struct.core_data, ptr %25, i32 0, i32 8
  %27 = load ptr, ptr %26, align 8
  %28 = load ptr, ptr %10, align 8
  %29 = getelementptr inbounds %struct.map_info, ptr %28, i32 0, i32 5
  store ptr %27, ptr %29, align 8
  %30 = load ptr, ptr %10, align 8
  %31 = load ptr, ptr %6, align 8
  %32 = getelementptr inbounds %struct.ps_prochandle, ptr %31, i32 0, i32 7
  %33 = load ptr, ptr %32, align 8
  %34 = getelementptr inbounds %struct.core_data, ptr %33, i32 0, i32 8
  store ptr %30, ptr %34, align 8
  %35 = load ptr, ptr %10, align 8
  store ptr %35, ptr %5, align 8
  br label %36

36:                                               ; preds = %22, %21
  %37 = load ptr, ptr %5, align 8
  ret ptr %37
}