; Function Attrs: nounwind uwtable
define internal fastcc void @add_class_share_map_info(ptr nocapture noundef readonly %0, i64 noundef %1, i64 noundef %2, i64 noundef %3) unnamed_addr #0 {
  %5 = getelementptr inbounds i8, ptr %0, i64 48
  %6 = load ptr, ptr %5, align 8
  %7 = getelementptr inbounds i8, ptr %6, i64 12
  %8 = load i32, ptr %7, align 4
  %9 = tail call noalias dereferenceable_or_null(48) ptr @calloc(i64 noundef 1, i64 noundef 48) #9
  %10 = icmp eq ptr %9, null
  br i1 %10, label %allocate_init_map.exit.thread, label %11

allocate_init_map.exit.thread:                    ; preds = %4
  tail call void (ptr, ...) @print_error(ptr noundef nonnull @.str.22) #8
  br label %19

11:                                               ; preds = %4
  store i32 %8, ptr %9, align 8
  %12 = getelementptr inbounds i8, ptr %9, i64 8
  store i64 %1, ptr %12, align 8
  %13 = getelementptr inbounds i8, ptr %9, i64 16
  store i64 %2, ptr %13, align 8
  %14 = getelementptr inbounds i8, ptr %9, i64 24
  store i64 %3, ptr %14, align 8
  %15 = getelementptr inbounds i8, ptr %9, i64 32
  store i32 4, ptr %15, align 8
  %16 = getelementptr inbounds i8, ptr %6, i64 48
  %17 = load ptr, ptr %16, align 8
  %18 = getelementptr inbounds i8, ptr %9, i64 40
  store ptr %17, ptr %18, align 8
  store ptr %9, ptr %16, align 8
  br label %19

19:                                               ; preds = %allocate_init_map.exit.thread, %11
  ret void
}